target datalayout = "e-m:e-p270:32:32-p271:32:32-p272:64:64-i64:64-i128:128-f80:128-n8:16:32:64-S128"
target triple = "x86_64-pc-linux-gnu"

%"class.std::__cxx11::basic_string" = type { %"struct.std::__cxx11::basic_string<char>::_Alloc_hider", i64, %union.anon }
%"struct.std::__cxx11::basic_string<char>::_Alloc_hider" = type { ptr }
%union.anon = type { i64, [8 x i8] }

; Function Attrs: mustprogress uwtable
define hidden void @_ZN2cv3dpm15DPMDetectorImpl16extractModelNameERKNSt7__cxx1112basic_stringIcSt11char_traitsIcESaIcEEE(ptr dead_on_unwind noalias writable sret(%"class.std::__cxx11::basic_string") align 8 %0, ptr noundef nonnull align 8 dereferenceable(56) %1, ptr noundef nonnull align 8 dereferenceable(32) %2) #0 align 2 {
  %4 = alloca ptr, align 8
  %5 = alloca ptr, align 8
  %6 = alloca ptr, align 8
  %7 = alloca i64, align 8
  %8 = alloca i32, align 4
  %9 = alloca i32, align 4
  store ptr %0, ptr %4, align 8
  store ptr %1, ptr %5, align 8
  store ptr %2, ptr %6, align 8
  %10 = load ptr, ptr %6, align 8
  %11 = call noundef i64 @_ZNKSt7__cxx1112basic_stringIcSt11char_traitsIcESaIcEE5rfindEcm(ptr noundef nonnull align 8 dereferenceable(32) %10, i8 noundef signext 47, i64 noundef -1) #10
  store i64 %11, ptr %7, align 8
  %12 = load i64, ptr %7, align 8
  %13 = icmp eq i64 %12, -1
  br i1 %13, label %14, label %17

14:                                               ; preds = %3
  %15 = load ptr, ptr %6, align 8
  %16 = call noundef i64 @_ZNKSt7__cxx1112basic_stringIcSt11char_traitsIcESaIcEE5rfindEcm(ptr noundef nonnull align 8 dereferenceable(32) %15, i8 noundef signext 92, i64 noundef -1) #10
  store i64 %16, ptr %7, align 8
  br label %17

17:                                               ; preds = %14, %3
  %18 = load i64, ptr %7, align 8
  %19 = icmp eq i64 %18, -1
  br i1 %19, label %20, label %21

20:                                               ; preds = %17
  store i64 0, ptr %7, align 8
  br label %24

21:                                               ; preds = %17
  %22 = load i64, ptr %7, align 8
  %23 = add i64 %22, 1
  store i64 %23, ptr %7, align 8
  br label %24

24:                                               ; preds = %21, %20
  store i32 4, ptr %8, align 4
  %25 = load ptr, ptr %6, align 8
  %26 = call noundef i64 @_ZNKSt7__cxx1112basic_stringIcSt11char_traitsIcESaIcEE4sizeEv(ptr noundef nonnull align 8 dereferenceable(32) %25) #10
  %27 = load i64, ptr %7, align 8
  %28 = sub i64 %26, %27
  %29 = sub i64 %28, 4
  %30 = trunc i64 %29 to i32
  store i32 %30, ptr %9, align 4
  %31 = load ptr, ptr %6, align 8
  %32 = load i64, ptr %7, align 8
  %33 = load i32, ptr %9, align 4
  %34 = sext i32 %33 to i64
  call void @_ZNKSt7__cxx1112basic_stringIcSt11char_traitsIcESaIcEE6substrEmm(ptr dead_on_unwind writable sret(%"class.std::__cxx11::basic_string") align 8 %0, ptr noundef nonnull align 8 dereferenceable(32) %31, i64 noundef %32, i64 noundef %34)
  ret void
}