; Function Attrs: mustprogress uwtable
define hidden void @_ZN2cv3dpm15DPMDetectorImpl16extractModelNameERKNSt7__cxx1112basic_stringIcSt11char_traitsIcESaIcEEE(ptr dead_on_unwind noalias writable sret(%"class.std::__cxx11::basic_string") align 8 %0, ptr nocapture noundef nonnull readnone align 8 dereferenceable(56) %1, ptr noundef nonnull align 8 dereferenceable(32) %2) local_unnamed_addr #0 align 2 {
  %4 = tail call noundef i64 @_ZNKSt7__cxx1112basic_stringIcSt11char_traitsIcESaIcEE5rfindEcm(ptr noundef nonnull align 8 dereferenceable(32) %2, i8 noundef signext 47, i64 noundef -1) #20
  %5 = icmp eq i64 %4, -1
  br i1 %5, label %6, label %8

6:                                                ; preds = %3
  %7 = tail call noundef i64 @_ZNKSt7__cxx1112basic_stringIcSt11char_traitsIcESaIcEE5rfindEcm(ptr noundef nonnull align 8 dereferenceable(32) %2, i8 noundef signext 92, i64 noundef -1) #20
  br label %8

8:                                                ; preds = %6, %3
  %.0 = phi i64 [ %7, %6 ], [ %4, %3 ]
  %9 = add i64 %.0, 1
  %10 = tail call noundef i64 @_ZNKSt7__cxx1112basic_stringIcSt11char_traitsIcESaIcEE4sizeEv(ptr noundef nonnull align 8 dereferenceable(32) %2) #20
  %11 = sub i64 %10, %9
  %12 = shl i64 %11, 32
  %sext = add i64 %12, -17179869184
  %13 = ashr exact i64 %sext, 32
  tail call void @_ZNKSt7__cxx1112basic_stringIcSt11char_traitsIcESaIcEE6substrEmm(ptr dead_on_unwind writable sret(%"class.std::__cxx11::basic_string") align 8 %0, ptr noundef nonnull align 8 dereferenceable(32) %2, i64 noundef %9, i64 noundef %13)
  ret void
}